; Function Attrs: nounwind uwtable
define dso_local void @zend_observer_fcall_begin(ptr noundef %0) local_unnamed_addr #0 {
  %2 = getelementptr inbounds nuw i8, ptr %0, i64 24
  %3 = load ptr, ptr %2, align 8, !tbaa !69, !nonnull !71, !noundef !71
  %4 = getelementptr inbounds nuw i8, ptr %3, i64 4
  %5 = load i32, ptr %4, align 4, !tbaa !34
  %6 = and i32 %5, 16777216
  %.not = icmp eq i32 %6, 0
  br i1 %.not, label %7, label %_zend_observe_fcall_begin.exit

7:                                                ; preds = %1
  %8 = load i32, ptr @zend_observer_fcall_op_array_extension, align 4, !tbaa !8
  %.not.i = icmp eq i32 %8, -1
  br i1 %.not.i, label %_zend_observe_fcall_begin.exit, label %9

9:                                                ; preds = %7
  %10 = getelementptr inbounds nuw i8, ptr %3, i64 56
  %11 = load ptr, ptr %10, align 8, !tbaa !34
  %12 = and i32 %5, 262144
  %.not.i.i = icmp ne i32 %12, 0
  %.not12.i.i = icmp eq ptr %11, null
  %or.cond.i.i = select i1 %.not.i.i, i1 true, i1 %.not12.i.i
  br i1 %or.cond.i.i, label %_zend_observe_fcall_begin.exit, label %13

13:                                               ; preds = %9
  %14 = ptrtoint ptr %11 to i64
  %15 = and i64 %14, 1
  %.not13.i.i = icmp eq i64 %15, 0
  br i1 %.not13.i.i, label %zend_observer_fcall_has_no_observers.exit.i, label %16

16:                                               ; preds = %13
  %17 = load ptr, ptr getelementptr inbounds nuw (i8, ptr @compiler_globals, i64 512), align 8, !tbaa !68
  %18 = getelementptr inbounds i8, ptr %17, i64 %14
  %19 = load ptr, ptr %18, align 8, !tbaa !4
  br label %zend_observer_fcall_has_no_observers.exit.i

zend_observer_fcall_has_no_observers.exit.i:      ; preds = %16, %13
  %20 = phi ptr [ %19, %16 ], [ %11, %13 ]
  %21 = load i8, ptr %3, align 8, !tbaa !34
  %.not14.i.i = icmp eq i8 %21, 1
  %22 = load i32, ptr @zend_observer_fcall_internal_function_extension, align 4
  %23 = select i1 %.not14.i.i, i32 %22, i32 %8
  %24 = sext i32 %23 to i64
  %25 = getelementptr inbounds ptr, ptr %20, i64 %24
  %26 = load ptr, ptr %25, align 8, !tbaa !4
  %27 = icmp eq ptr %26, inttoptr (i64 3 to ptr)
  br i1 %27, label %_zend_observe_fcall_begin.exit, label %28

28:                                               ; preds = %zend_observer_fcall_has_no_observers.exit.i
  tail call void @zend_observer_fcall_begin_prechecked(ptr noundef nonnull %0, ptr noundef nonnull %25)
  br label %_zend_observe_fcall_begin.exit

_zend_observe_fcall_begin.exit:                   ; preds = %28, %zend_observer_fcall_has_no_observers.exit.i, %9, %7, %1
  ret void
}